target datalayout = "e-m:e-p270:32:32-p271:32:32-p272:64:64-i64:64-i128:128-f80:128-n8:16:32:64-S128"
target triple = "x86_64-pc-linux-gnu"

%"class.cv::KeyPoint" = type { %"class.cv::Point_.24", float, float, float, i32, i32 }
%"class.cv::Point_.24" = type { float, float }
%"struct.std::_Vector_base.20" = type { %"struct.std::_Vector_base<cv::KeyPoint, std::allocator<cv::KeyPoint>>::_Vector_impl" }
%"struct.std::_Vector_base<cv::KeyPoint, std::allocator<cv::KeyPoint>>::_Vector_impl" = type { %"struct.std::_Vector_base<cv::KeyPoint, std::allocator<cv::KeyPoint>>::_Vector_impl_data" }
%"struct.std::_Vector_base<cv::KeyPoint, std::allocator<cv::KeyPoint>>::_Vector_impl_data" = type { ptr, ptr, ptr }
%"class.cv::DMatch" = type { i32, i32, i32, float }
%"struct.std::_Vector_base.26" = type { %"struct.std::_Vector_base<cv::DMatch, std::allocator<cv::DMatch>>::_Vector_impl" }
%"struct.std::_Vector_base<cv::DMatch, std::allocator<cv::DMatch>>::_Vector_impl" = type { %"struct.std::_Vector_base<cv::DMatch, std::allocator<cv::DMatch>>::_Vector_impl_data" }
%"struct.std::_Vector_base<cv::DMatch, std::allocator<cv::DMatch>>::_Vector_impl_data" = type { ptr, ptr, ptr }

; Function Attrs: inlinehint mustprogress nounwind uwtable
define linkonce_odr hidden void @_ZN2cv6Point_IfEC2Eff(ptr noundef nonnull align 4 dereferenceable(8) %0, float noundef %1, float noundef %2) unnamed_addr #4 comdat align 2 {
  %4 = alloca ptr, align 8
  %5 = alloca float, align 4
  %6 = alloca float, align 4
  store ptr %0, ptr %4, align 8, !tbaa !165
  store float %1, ptr %5, align 4, !tbaa !126
  store float %2, ptr %6, align 4, !tbaa !126
  %7 = load ptr, ptr %4, align 8
  %8 = getelementptr inbounds nuw %"class.cv::Point_.24", ptr %7, i32 0, i32 0
  %9 = load float, ptr %5, align 4, !tbaa !126
  store float %9, ptr %8, align 4, !tbaa !234
  %10 = getelementptr inbounds nuw %"class.cv::Point_.24", ptr %7, i32 0, i32 1
  %11 = load float, ptr %6, align 4, !tbaa !126
  store float %11, ptr %10, align 4, !tbaa !235
  ret void
}

; Function Attrs: inlinehint mustprogress nounwind uwtable
define internal noundef float @_ZN2cvL13saturate_castIfEET_f(float noundef %0) #4 {
  %2 = alloca float, align 4
  store float %0, ptr %2, align 4, !tbaa !126
  %3 = load float, ptr %2, align 4, !tbaa !126
  ret float %3
}

; Function Attrs: inlinehint mustprogress nounwind uwtable
define linkonce_odr noundef float @_ZSt3absf(float noundef %0) #4 comdat {
  %2 = alloca float, align 4
  store float %0, ptr %2, align 4, !tbaa !126
  %3 = load float, ptr %2, align 4, !tbaa !126
  %4 = call float @llvm.fabs.f32(float %3)
  ret float %4
}

; Function Attrs: inlinehint mustprogress nounwind uwtable
define internal noundef double @_ZN2cvL4normIfEEdRKNS_6Point_IT_EE(ptr noundef nonnull align 4 dereferenceable(8) %0) #4 {
  %2 = alloca ptr, align 8
  store ptr %0, ptr %2, align 8, !tbaa !165
  %3 = load ptr, ptr %2, align 8, !tbaa !165
  %4 = getelementptr inbounds nuw %"class.cv::Point_.24", ptr %3, i32 0, i32 0
  %5 = load float, ptr %4, align 4, !tbaa !234
  %6 = fpext float %5 to double
  %7 = load ptr, ptr %2, align 8, !tbaa !165
  %8 = getelementptr inbounds nuw %"class.cv::Point_.24", ptr %7, i32 0, i32 0
  %9 = load float, ptr %8, align 4, !tbaa !234
  %10 = fpext float %9 to double
  %11 = load ptr, ptr %2, align 8, !tbaa !165
  %12 = getelementptr inbounds nuw %"class.cv::Point_.24", ptr %11, i32 0, i32 1
  %13 = load float, ptr %12, align 4, !tbaa !235
  %14 = fpext float %13 to double
  %15 = load ptr, ptr %2, align 8, !tbaa !165
  %16 = getelementptr inbounds nuw %"class.cv::Point_.24", ptr %15, i32 0, i32 1
  %17 = load float, ptr %16, align 4, !tbaa !235
  %18 = fpext float %17 to double
  %19 = fmul double %14, %18
  %20 = call double @llvm.fmuladd.f64(double %6, double %10, double %19)
  %21 = call double @sqrt(double noundef %20) #3, !tbaa !8
  ret double %21
}

; Function Attrs: inlinehint mustprogress uwtable
define internal <2 x float> @_ZN2cvmiIfEENS_6Point_IT_EERKS3_S5_(ptr noundef nonnull align 4 dereferenceable(8) %0, ptr noundef nonnull align 4 dereferenceable(8) %1) #16 {
  %3 = alloca %"class.cv::Point_.24", align 4
  %4 = alloca ptr, align 8
  %5 = alloca ptr, align 8
  store ptr %0, ptr %4, align 8, !tbaa !165
  store ptr %1, ptr %5, align 8, !tbaa !165
  %6 = load ptr, ptr %4, align 8, !tbaa !165
  %7 = getelementptr inbounds nuw %"class.cv::Point_.24", ptr %6, i32 0, i32 0
  %8 = load float, ptr %7, align 4, !tbaa !234
  %9 = load ptr, ptr %5, align 8, !tbaa !165
  %10 = getelementptr inbounds nuw %"class.cv::Point_.24", ptr %9, i32 0, i32 0
  %11 = load float, ptr %10, align 4, !tbaa !234
  %12 = fsub float %8, %11
  %13 = call noundef float @_ZN2cvL13saturate_castIfEET_f(float noundef %12)
  %14 = load ptr, ptr %4, align 8, !tbaa !165
  %15 = getelementptr inbounds nuw %"class.cv::Point_.24", ptr %14, i32 0, i32 1
  %16 = load float, ptr %15, align 4, !tbaa !235
  %17 = load ptr, ptr %5, align 8, !tbaa !165
  %18 = getelementptr inbounds nuw %"class.cv::Point_.24", ptr %17, i32 0, i32 1
  %19 = load float, ptr %18, align 4, !tbaa !235
  %20 = fsub float %16, %19
  %21 = call noundef float @_ZN2cvL13saturate_castIfEET_f(float noundef %20)
  call void @_ZN2cv6Point_IfEC2Eff(ptr noundef nonnull align 4 dereferenceable(8) %3, float noundef %13, float noundef %21)
  %22 = load <2 x float>, ptr %3, align 4
  ret <2 x float> %22
}

; Function Attrs: mustprogress uwtable
define internal noundef zeroext i1 @_ZN6cvtest12_GLOBAL__N_115keyPointsEqualsERKN2cv8KeyPointES4_(ptr noundef nonnull align 4 dereferenceable(28) %0, ptr noundef nonnull align 4 dereferenceable(28) %1) #11 {
  %3 = alloca i1, align 1
  %4 = alloca ptr, align 8
  %5 = alloca ptr, align 8
  %6 = alloca double, align 8
  %7 = alloca double, align 8
  %8 = alloca double, align 8
  %9 = alloca double, align 8
  %10 = alloca double, align 8
  %11 = alloca %"class.cv::Point_.24", align 4
  %12 = alloca i32, align 4
  store ptr %0, ptr %4, align 8, !tbaa !151
  store ptr %1, ptr %5, align 8, !tbaa !151
  call void @llvm.lifetime.start.p0(i64 8, ptr %6) #3
  store double 1.000000e+00, ptr %6, align 8, !tbaa !17
  call void @llvm.lifetime.start.p0(i64 8, ptr %7) #3
  store double 1.000000e+00, ptr %7, align 8, !tbaa !17
  call void @llvm.lifetime.start.p0(i64 8, ptr %8) #3
  store double 2.000000e+00, ptr %8, align 8, !tbaa !17
  call void @llvm.lifetime.start.p0(i64 8, ptr %9) #3
  store double 1.000000e-01, ptr %9, align 8, !tbaa !17
  call void @llvm.lifetime.start.p0(i64 8, ptr %10) #3
  call void @llvm.lifetime.start.p0(i64 8, ptr %11) #3
  %13 = load ptr, ptr %4, align 8, !tbaa !151
  %14 = getelementptr inbounds nuw %"class.cv::KeyPoint", ptr %13, i32 0, i32 0
  %15 = load ptr, ptr %5, align 8, !tbaa !151
  %16 = getelementptr inbounds nuw %"class.cv::KeyPoint", ptr %15, i32 0, i32 0
  %17 = call <2 x float> @_ZN2cvmiIfEENS_6Point_IT_EERKS3_S5_(ptr noundef nonnull align 4 dereferenceable(8) %14, ptr noundef nonnull align 4 dereferenceable(8) %16)
  store <2 x float> %17, ptr %11, align 4
  %18 = call noundef double @_ZN2cvL4normIfEEdRKNS_6Point_IT_EE(ptr noundef nonnull align 4 dereferenceable(8) %11)
  call void @llvm.lifetime.end.p0(i64 8, ptr %11) #3
  store double %18, ptr %10, align 8, !tbaa !17
  %19 = load double, ptr %10, align 8, !tbaa !17
  %20 = fcmp olt double %19, 1.000000e+00
  br i1 %20, label %21, label %71

21:                                               ; preds = %2
  %22 = load ptr, ptr %4, align 8, !tbaa !151
  %23 = getelementptr inbounds nuw %"class.cv::KeyPoint", ptr %22, i32 0, i32 1
  %24 = load float, ptr %23, align 4, !tbaa !153
  %25 = load ptr, ptr %5, align 8, !tbaa !151
  %26 = getelementptr inbounds nuw %"class.cv::KeyPoint", ptr %25, i32 0, i32 1
  %27 = load float, ptr %26, align 4, !tbaa !153
  %28 = fsub float %24, %27
  %29 = fpext float %28 to double
  %30 = call double @llvm.fabs.f64(double %29)
  %31 = fcmp olt double %30, 1.000000e+00
  br i1 %31, label %32, label %71

32:                                               ; preds = %21
  %33 = load ptr, ptr %4, align 8, !tbaa !151
  %34 = getelementptr inbounds nuw %"class.cv::KeyPoint", ptr %33, i32 0, i32 2
  %35 = load float, ptr %34, align 4, !tbaa !156
  %36 = load ptr, ptr %5, align 8, !tbaa !151
  %37 = getelementptr inbounds nuw %"class.cv::KeyPoint", ptr %36, i32 0, i32 2
  %38 = load float, ptr %37, align 4, !tbaa !156
  %39 = fsub float %35, %38
  %40 = call noundef float @_ZSt3absf(float noundef %39)
  %41 = fpext float %40 to double
  %42 = fcmp olt double %41, 2.000000e+00
  br i1 %42, label %43, label %71

43:                                               ; preds = %32
  %44 = load ptr, ptr %4, align 8, !tbaa !151
  %45 = getelementptr inbounds nuw %"class.cv::KeyPoint", ptr %44, i32 0, i32 3
  %46 = load float, ptr %45, align 4, !tbaa !157
  %47 = load ptr, ptr %5, align 8, !tbaa !151
  %48 = getelementptr inbounds nuw %"class.cv::KeyPoint", ptr %47, i32 0, i32 3
  %49 = load float, ptr %48, align 4, !tbaa !157
  %50 = fsub float %46, %49
  %51 = call noundef float @_ZSt3absf(float noundef %50)
  %52 = fpext float %51 to double
  %53 = fcmp olt double %52, 1.000000e-01
  br i1 %53, label %54, label %71

54:                                               ; preds = %43
  %55 = load ptr, ptr %4, align 8, !tbaa !151
  %56 = getelementptr inbounds nuw %"class.cv::KeyPoint", ptr %55, i32 0, i32 4
  %57 = load i32, ptr %56, align 4, !tbaa !158
  %58 = load ptr, ptr %5, align 8, !tbaa !151
  %59 = getelementptr inbounds nuw %"class.cv::KeyPoint", ptr %58, i32 0, i32 4
  %60 = load i32, ptr %59, align 4, !tbaa !158
  %61 = icmp eq i32 %57, %60
  br i1 %61, label %62, label %71

62:                                               ; preds = %54
  %63 = load ptr, ptr %4, align 8, !tbaa !151
  %64 = getelementptr inbounds nuw %"class.cv::KeyPoint", ptr %63, i32 0, i32 5
  %65 = load i32, ptr %64, align 4, !tbaa !159
  %66 = load ptr, ptr %5, align 8, !tbaa !151
  %67 = getelementptr inbounds nuw %"class.cv::KeyPoint", ptr %66, i32 0, i32 5
  %68 = load i32, ptr %67, align 4, !tbaa !159
  %69 = icmp eq i32 %65, %68
  br i1 %69, label %70, label %71

70:                                               ; preds = %62
  store i1 true, ptr %3, align 1
  store i32 1, ptr %12, align 4
  br label %72

71:                                               ; preds = %62, %54, %43, %32, %21, %2
  store i1 false, ptr %3, align 1
  store i32 1, ptr %12, align 4
  br label %72

72:                                               ; preds = %71, %70
  call void @llvm.lifetime.end.p0(i64 8, ptr %10) #3
  call void @llvm.lifetime.end.p0(i64 8, ptr %9) #3
  call void @llvm.lifetime.end.p0(i64 8, ptr %8) #3
  call void @llvm.lifetime.end.p0(i64 8, ptr %7) #3
  call void @llvm.lifetime.end.p0(i64 8, ptr %6) #3
  %73 = load i1, ptr %3, align 1
  ret i1 %73
}

; Function Attrs: mustprogress nounwind uwtable
define linkonce_odr hidden noundef nonnull align 4 dereferenceable(28) ptr @_ZNKSt6vectorIN2cv8KeyPointESaIS1_EEixEm(ptr noundef nonnull align 8 dereferenceable(24) %0, i64 noundef %1) #9 comdat align 2 {
  %3 = alloca ptr, align 8
  %4 = alloca i64, align 8
  store ptr %0, ptr %3, align 8, !tbaa !149
  store i64 %1, ptr %4, align 8, !tbaa !85
  %5 = load ptr, ptr %3, align 8
  %6 = getelementptr inbounds nuw %"struct.std::_Vector_base.20", ptr %5, i32 0, i32 0
  %7 = getelementptr inbounds nuw %"struct.std::_Vector_base<cv::KeyPoint, std::allocator<cv::KeyPoint>>::_Vector_impl_data", ptr %6, i32 0, i32 0
  %8 = load ptr, ptr %7, align 8, !tbaa !163
  %9 = load i64, ptr %4, align 8, !tbaa !85
  %10 = getelementptr inbounds nuw %"class.cv::KeyPoint", ptr %8, i64 %9
  ret ptr %10
}

; Function Attrs: mustprogress nounwind uwtable
define linkonce_odr hidden noundef nonnull align 4 dereferenceable(16) ptr @_ZNKSt6vectorIN2cv6DMatchESaIS1_EEixEm(ptr noundef nonnull align 8 dereferenceable(24) %0, i64 noundef %1) #9 comdat align 2 {
  %3 = alloca ptr, align 8
  %4 = alloca i64, align 8
  store ptr %0, ptr %3, align 8, !tbaa !170
  store i64 %1, ptr %4, align 8, !tbaa !85
  %5 = load ptr, ptr %3, align 8
  %6 = getelementptr inbounds nuw %"struct.std::_Vector_base.26", ptr %5, i32 0, i32 0
  %7 = getelementptr inbounds nuw %"struct.std::_Vector_base<cv::DMatch, std::allocator<cv::DMatch>>::_Vector_impl_data", ptr %6, i32 0, i32 0
  %8 = load ptr, ptr %7, align 8, !tbaa !180
  %9 = load i64, ptr %4, align 8, !tbaa !85
  %10 = getelementptr inbounds nuw %"class.cv::DMatch", ptr %8, i64 %9
  ret ptr %10
}

; Function Attrs: mustprogress nounwind uwtable
define linkonce_odr hidden noundef i64 @_ZNKSt6vectorIN2cv6DMatchESaIS1_EE4sizeEv(ptr noundef nonnull align 8 dereferenceable(24) %0) #9 comdat align 2 {
  %2 = alloca ptr, align 8
  store ptr %0, ptr %2, align 8, !tbaa !170
  %3 = load ptr, ptr %2, align 8
  %4 = getelementptr inbounds nuw %"struct.std::_Vector_base.26", ptr %3, i32 0, i32 0
  %5 = getelementptr inbounds nuw %"struct.std::_Vector_base<cv::DMatch, std::allocator<cv::DMatch>>::_Vector_impl_data", ptr %4, i32 0, i32 1
  %6 = load ptr, ptr %5, align 8, !tbaa !178
  %7 = getelementptr inbounds nuw %"struct.std::_Vector_base.26", ptr %3, i32 0, i32 0
  %8 = getelementptr inbounds nuw %"struct.std::_Vector_base<cv::DMatch, std::allocator<cv::DMatch>>::_Vector_impl_data", ptr %7, i32 0, i32 0
  %9 = load ptr, ptr %8, align 8, !tbaa !180
  %10 = ptrtoint ptr %6 to i64
  %11 = ptrtoint ptr %9 to i64
  %12 = sub i64 %10, %11
  %13 = sdiv exact i64 %12, 16
  ret i64 %13
}

; Function Attrs: mustprogress uwtable
define hidden noundef i32 @_ZN6cvtest21getMatchedPointsCountERKSt6vectorIN2cv8KeyPointESaIS2_EES6_RKS0_INS1_6DMatchESaIS7_EE(ptr noundef nonnull align 8 dereferenceable(24) %0, ptr noundef nonnull align 8 dereferenceable(24) %1, ptr noundef nonnull align 8 dereferenceable(24) %2) #6 {
  %4 = alloca ptr, align 8
  %5 = alloca ptr, align 8
  %6 = alloca ptr, align 8
  %7 = alloca i32, align 4
  %8 = alloca i64, align 8
  %9 = alloca ptr, align 8
  %10 = alloca ptr, align 8
  %11 = alloca ptr, align 8
  store ptr %0, ptr %4, align 8, !tbaa !149
  store ptr %1, ptr %5, align 8, !tbaa !149
  store ptr %2, ptr %6, align 8, !tbaa !170
  call void @llvm.lifetime.start.p0(i64 4, ptr %7) #3
  store i32 0, ptr %7, align 4, !tbaa !8
  call void @llvm.lifetime.start.p0(i64 8, ptr %8) #3
  store i64 0, ptr %8, align 8, !tbaa !85
  br label %12

12:                                               ; preds = %41, %3
  %13 = load i64, ptr %8, align 8, !tbaa !85
  %14 = load ptr, ptr %6, align 8, !tbaa !170
  %15 = call noundef i64 @_ZNKSt6vectorIN2cv6DMatchESaIS1_EE4sizeEv(ptr noundef nonnull align 8 dereferenceable(24) %14) #3
  %16 = icmp ult i64 %13, %15
  br i1 %16, label %18, label %17

17:                                               ; preds = %12
  call void @llvm.lifetime.end.p0(i64 8, ptr %8) #3
  br label %44

18:                                               ; preds = %12
  call void @llvm.lifetime.start.p0(i64 8, ptr %9) #3
  %19 = load ptr, ptr %6, align 8, !tbaa !170
  %20 = load i64, ptr %8, align 8, !tbaa !85
  %21 = call noundef nonnull align 4 dereferenceable(16) ptr @_ZNKSt6vectorIN2cv6DMatchESaIS1_EEixEm(ptr noundef nonnull align 8 dereferenceable(24) %19, i64 noundef %20) #3
  store ptr %21, ptr %9, align 8, !tbaa !172
  call void @llvm.lifetime.start.p0(i64 8, ptr %10) #3
  %22 = load ptr, ptr %4, align 8, !tbaa !149
  %23 = load ptr, ptr %9, align 8, !tbaa !172
  %24 = getelementptr inbounds nuw %"class.cv::DMatch", ptr %23, i32 0, i32 0
  %25 = load i32, ptr %24, align 4, !tbaa !174
  %26 = sext i32 %25 to i64
  %27 = call noundef nonnull align 4 dereferenceable(28) ptr @_ZNKSt6vectorIN2cv8KeyPointESaIS1_EEixEm(ptr noundef nonnull align 8 dereferenceable(24) %22, i64 noundef %26) #3
  store ptr %27, ptr %10, align 8, !tbaa !151
  call void @llvm.lifetime.start.p0(i64 8, ptr %11) #3
  %28 = load ptr, ptr %5, align 8, !tbaa !149
  %29 = load ptr, ptr %9, align 8, !tbaa !172
  %30 = getelementptr inbounds nuw %"class.cv::DMatch", ptr %29, i32 0, i32 1
  %31 = load i32, ptr %30, align 4, !tbaa !176
  %32 = sext i32 %31 to i64
  %33 = call noundef nonnull align 4 dereferenceable(28) ptr @_ZNKSt6vectorIN2cv8KeyPointESaIS1_EEixEm(ptr noundef nonnull align 8 dereferenceable(24) %28, i64 noundef %32) #3
  store ptr %33, ptr %11, align 8, !tbaa !151
  %34 = load ptr, ptr %10, align 8, !tbaa !151
  %35 = load ptr, ptr %11, align 8, !tbaa !151
  %36 = call noundef zeroext i1 @_ZN6cvtest12_GLOBAL__N_115keyPointsEqualsERKN2cv8KeyPointES4_(ptr noundef nonnull align 4 dereferenceable(28) %34, ptr noundef nonnull align 4 dereferenceable(28) %35)
  br i1 %36, label %37, label %40

37:                                               ; preds = %18
  %38 = load i32, ptr %7, align 4, !tbaa !8
  %39 = add nsw i32 %38, 1
  store i32 %39, ptr %7, align 4, !tbaa !8
  br label %40

40:                                               ; preds = %37, %18
  call void @llvm.lifetime.end.p0(i64 8, ptr %11) #3
  call void @llvm.lifetime.end.p0(i64 8, ptr %10) #3
  call void @llvm.lifetime.end.p0(i64 8, ptr %9) #3
  br label %41

41:                                               ; preds = %40
  %42 = load i64, ptr %8, align 8, !tbaa !85
  %43 = add i64 %42, 1
  store i64 %43, ptr %8, align 8, !tbaa !85
  br label %12, !llvm.loop !177

44:                                               ; preds = %17
  %45 = load i32, ptr %7, align 4, !tbaa !8
  call void @llvm.lifetime.end.p0(i64 4, ptr %7) #3
  ret i32 %45
}