; Function Attrs: mustprogress nofree norecurse nosync nounwind willreturn memory(read, inaccessiblemem: none) uwtable
define hidden noundef i32 @_ZN6cvtest21getMatchedPointsCountERKSt6vectorIN2cv8KeyPointESaIS2_EES6_RKS0_INS1_6DMatchESaIS7_EE(ptr noundef nonnull readonly align 8 captures(none) dereferenceable(24) %0, ptr noundef nonnull readonly align 8 captures(none) dereferenceable(24) %1, ptr noundef nonnull readonly align 8 captures(none) dereferenceable(24) %2) local_unnamed_addr #14 {
  %4 = getelementptr inbounds nuw i8, ptr %2, i64 8
  %5 = load ptr, ptr %4, align 8, !tbaa !238
  %6 = load ptr, ptr %2, align 8, !tbaa !241
  %.not = icmp eq ptr %5, %6
  br i1 %.not, label %._crit_edge, label %.lr.ph

.lr.ph:                                           ; preds = %3
  %7 = ptrtoint ptr %5 to i64
  %8 = ptrtoint ptr %6 to i64
  %9 = sub i64 %7, %8
  %10 = ashr exact i64 %9, 4
  %11 = load ptr, ptr %0, align 8, !tbaa !194
  %12 = load ptr, ptr %1, align 8, !tbaa !194
  %umax = tail call i64 @llvm.umax.i64(i64 %10, i64 1)
  br label %13

._crit_edge:                                      ; preds = %_ZN6cvtest12_GLOBAL__N_115keyPointsEqualsERKN2cv8KeyPointES4_.exit, %3
  %.0.lcssa = phi i32 [ 0, %3 ], [ %69, %_ZN6cvtest12_GLOBAL__N_115keyPointsEqualsERKN2cv8KeyPointES4_.exit ]
  ret i32 %.0.lcssa

13:                                               ; preds = %.lr.ph, %_ZN6cvtest12_GLOBAL__N_115keyPointsEqualsERKN2cv8KeyPointES4_.exit
  %.015 = phi i32 [ 0, %.lr.ph ], [ %69, %_ZN6cvtest12_GLOBAL__N_115keyPointsEqualsERKN2cv8KeyPointES4_.exit ]
  %.01214 = phi i64 [ 0, %.lr.ph ], [ %70, %_ZN6cvtest12_GLOBAL__N_115keyPointsEqualsERKN2cv8KeyPointES4_.exit ]
  %14 = getelementptr inbounds nuw %"class.cv::DMatch", ptr %6, i64 %.01214
  %15 = load i32, ptr %14, align 4, !tbaa !242
  %16 = sext i32 %15 to i64
  %17 = getelementptr inbounds nuw %"class.cv::KeyPoint", ptr %11, i64 %16
  %18 = getelementptr inbounds nuw i8, ptr %14, i64 4
  %19 = load i32, ptr %18, align 4, !tbaa !244
  %20 = sext i32 %19 to i64
  %21 = getelementptr inbounds nuw %"class.cv::KeyPoint", ptr %12, i64 %20
  %.val.i = load float, ptr %17, align 4, !tbaa !203
  %22 = getelementptr inbounds nuw i8, ptr %17, i64 4
  %.val14.i = load float, ptr %22, align 4, !tbaa !205
  %.val15.i = load float, ptr %21, align 4, !tbaa !203
  %23 = getelementptr inbounds nuw i8, ptr %21, i64 4
  %.val16.i = load float, ptr %23, align 4, !tbaa !205
  %24 = fsub float %.val.i, %.val15.i
  %25 = fsub float %.val14.i, %.val16.i
  %26 = fpext float %24 to double
  %27 = fpext float %25 to double
  %28 = fmul double %27, %27
  %29 = tail call double @llvm.fmuladd.f64(double %26, double %26, double %28)
  %sqrt.i.i = tail call noundef double @llvm.sqrt.f64(double %29)
  %30 = fcmp olt double %sqrt.i.i, 1.000000e+00
  br i1 %30, label %31, label %_ZN6cvtest12_GLOBAL__N_115keyPointsEqualsERKN2cv8KeyPointES4_.exit

31:                                               ; preds = %13
  %32 = getelementptr inbounds nuw i8, ptr %17, i64 8
  %33 = load float, ptr %32, align 4, !tbaa !206
  %34 = getelementptr inbounds nuw i8, ptr %21, i64 8
  %35 = load float, ptr %34, align 4, !tbaa !206
  %36 = fsub float %33, %35
  %37 = tail call float @llvm.fabs.f32(float %36)
  %38 = fcmp olt float %37, 1.000000e+00
  br i1 %38, label %39, label %_ZN6cvtest12_GLOBAL__N_115keyPointsEqualsERKN2cv8KeyPointES4_.exit

39:                                               ; preds = %31
  %40 = getelementptr inbounds nuw i8, ptr %17, i64 12
  %41 = load float, ptr %40, align 4, !tbaa !208
  %42 = getelementptr inbounds nuw i8, ptr %21, i64 12
  %43 = load float, ptr %42, align 4, !tbaa !208
  %44 = fsub float %41, %43
  %45 = tail call noundef float @llvm.fabs.f32(float %44)
  %46 = fcmp olt float %45, 2.000000e+00
  br i1 %46, label %47, label %_ZN6cvtest12_GLOBAL__N_115keyPointsEqualsERKN2cv8KeyPointES4_.exit

47:                                               ; preds = %39
  %48 = getelementptr inbounds nuw i8, ptr %17, i64 16
  %49 = load float, ptr %48, align 4, !tbaa !209
  %50 = getelementptr inbounds nuw i8, ptr %21, i64 16
  %51 = load float, ptr %50, align 4, !tbaa !209
  %52 = fsub float %49, %51
  %53 = tail call noundef float @llvm.fabs.f32(float %52)
  %54 = fpext float %53 to double
  %55 = fcmp olt double %54, 1.000000e-01
  br i1 %55, label %56, label %_ZN6cvtest12_GLOBAL__N_115keyPointsEqualsERKN2cv8KeyPointES4_.exit

56:                                               ; preds = %47
  %57 = getelementptr inbounds nuw i8, ptr %17, i64 20
  %58 = load i32, ptr %57, align 4, !tbaa !210
  %59 = getelementptr inbounds nuw i8, ptr %21, i64 20
  %60 = load i32, ptr %59, align 4, !tbaa !210
  %61 = icmp eq i32 %58, %60
  br i1 %61, label %62, label %_ZN6cvtest12_GLOBAL__N_115keyPointsEqualsERKN2cv8KeyPointES4_.exit

62:                                               ; preds = %56
  %63 = getelementptr inbounds nuw i8, ptr %17, i64 24
  %64 = load i32, ptr %63, align 4, !tbaa !211
  %65 = getelementptr inbounds nuw i8, ptr %21, i64 24
  %66 = load i32, ptr %65, align 4, !tbaa !211
  %67 = icmp eq i32 %64, %66
  %68 = zext i1 %67 to i32
  %spec.select = add nsw i32 %.015, %68
  br label %_ZN6cvtest12_GLOBAL__N_115keyPointsEqualsERKN2cv8KeyPointES4_.exit

_ZN6cvtest12_GLOBAL__N_115keyPointsEqualsERKN2cv8KeyPointES4_.exit: ; preds = %62, %56, %47, %39, %31, %13
  %69 = phi i32 [ %.015, %13 ], [ %.015, %31 ], [ %.015, %39 ], [ %.015, %47 ], [ %.015, %56 ], [ %spec.select, %62 ]
  %70 = add nuw i64 %.01214, 1
  %exitcond.not = icmp eq i64 %70, %umax
  br i1 %exitcond.not, label %._crit_edge, label %13, !llvm.loop !245
}